target datalayout = "e-m:e-p270:32:32-p271:32:32-p272:64:64-i64:64-i128:128-f80:128-n8:16:32:64-S128"
target triple = "x86_64-pc-linux-gnu"

@proto_register_tr.ett = internal global [3 x ptr] [ptr @ett_token_ring, ptr @ett_token_ring_ac, ptr @ett_token_ring_fc], align 16
@.str.51 = private unnamed_addr constant [11 x i8] c"Token-Ring\00", align 1
@.str.52 = private unnamed_addr constant [3 x i8] c"tr\00", align 1
@proto_tr = internal global i32 0, align 4
@.str.53 = private unnamed_addr constant [18 x i8] c"fix_linux_botches\00", align 1
@.str.54 = private unnamed_addr constant [66 x i8] c"Attempt to compensate for Linux mangling of the link-layer header\00", align 1
@.str.55 = private unnamed_addr constant [88 x i8] c"Whether Linux mangling of the link-layer header should be checked for and worked around\00", align 1
@fix_linux_botches = internal global i8 0, align 1
@tr_handle = internal global ptr null, align 8
@tr_tap = internal global i32 0, align 4

; Function Attrs: null_pointer_is_valid sspstrong uwtable
define hidden void @proto_register_tr() #0 {
  %1 = alloca ptr, align 8
  %2 = alloca ptr, align 8
  call void @llvm.lifetime.start.p0(i64 8, ptr %1) #13
  call void @llvm.lifetime.start.p0(i64 8, ptr %2) #13
  %3 = call i32 @proto_register_protocol(ptr noundef @.str.51, ptr noundef @.str.51, ptr noundef @.str.52)
  store i32 %3, ptr @proto_tr, align 4
  %4 = load i32, ptr @proto_tr, align 4
  call void @proto_register_field_array(i32 noundef %4, ptr noundef @proto_register_tr.hf, i32 noundef 20)
  call void @proto_register_subtree_array(ptr noundef @proto_register_tr.ett, i32 noundef 3)
  %5 = load i32, ptr @proto_tr, align 4
  %6 = call ptr @expert_register_protocol(i32 noundef %5)
  store ptr %6, ptr %2, align 8
  %7 = load ptr, ptr %2, align 8
  call void @expert_register_field_array(ptr noundef %7, ptr noundef @proto_register_tr.ei, i32 noundef 2)
  %8 = load i32, ptr @proto_tr, align 4
  %9 = call ptr @prefs_register_protocol(i32 noundef %8, ptr noundef null)
  store ptr %9, ptr %1, align 8
  %10 = load ptr, ptr %1, align 8
  call void @prefs_register_bool_preference(ptr noundef %10, ptr noundef @.str.53, ptr noundef @.str.54, ptr noundef @.str.55, ptr noundef @fix_linux_botches)
  %11 = load i32, ptr @proto_tr, align 4
  %12 = call ptr @register_dissector(ptr noundef @.str.52, ptr noundef @dissect_tr, i32 noundef %11)
  store ptr %12, ptr @tr_handle, align 8
  %13 = call i32 @register_tap(ptr noundef @.str.52)
  store i32 %13, ptr @tr_tap, align 4
  %14 = load i32, ptr @proto_tr, align 4
  call void @register_conversation_table(i32 noundef %14, i1 noundef zeroext true, ptr noundef @tr_conversation_packet, ptr noundef @tr_endpoint_packet)
  %15 = load i32, ptr @proto_tr, align 4
  %16 = call ptr @register_capture_dissector(ptr noundef @.str.52, ptr noundef @capture_tr, i32 noundef %15)
  call void @llvm.lifetime.end.p0(i64 8, ptr %2) #13
  call void @llvm.lifetime.end.p0(i64 8, ptr %1) #13
  ret void
}