; Function Attrs: null_pointer_is_valid sspstrong uwtable
define hidden void @proto_register_tr() local_unnamed_addr #0 {
  %1 = tail call i32 @proto_register_protocol(ptr noundef nonnull @.str.51, ptr noundef nonnull @.str.51, ptr noundef nonnull @.str.52)
  store i32 %1, ptr @proto_tr, align 4
  tail call void @proto_register_field_array(i32 noundef %1, ptr noundef nonnull @proto_register_tr.hf, i32 noundef 20)
  tail call void @proto_register_subtree_array(ptr noundef nonnull @proto_register_tr.ett, i32 noundef 3)
  %2 = load i32, ptr @proto_tr, align 4
  %3 = tail call ptr @expert_register_protocol(i32 noundef %2)
  tail call void @expert_register_field_array(ptr noundef %3, ptr noundef nonnull @proto_register_tr.ei, i32 noundef 2)
  %4 = load i32, ptr @proto_tr, align 4
  %5 = tail call ptr @prefs_register_protocol(i32 noundef %4, ptr noundef null)
  tail call void @prefs_register_bool_preference(ptr noundef %5, ptr noundef nonnull @.str.53, ptr noundef nonnull @.str.54, ptr noundef nonnull @.str.55, ptr noundef nonnull @fix_linux_botches)
  %6 = load i32, ptr @proto_tr, align 4
  %7 = tail call ptr @register_dissector(ptr noundef nonnull @.str.52, ptr noundef nonnull @dissect_tr, i32 noundef %6)
  store ptr %7, ptr @tr_handle, align 8
  %8 = tail call i32 @register_tap(ptr noundef nonnull @.str.52)
  store i32 %8, ptr @tr_tap, align 4
  %9 = load i32, ptr @proto_tr, align 4
  tail call void @register_conversation_table(i32 noundef %9, i1 noundef zeroext true, ptr noundef nonnull @tr_conversation_packet, ptr noundef nonnull @tr_endpoint_packet)
  %10 = load i32, ptr @proto_tr, align 4
  %11 = tail call ptr @register_capture_dissector(ptr noundef nonnull @.str.52, ptr noundef nonnull @capture_tr, i32 noundef %10)
  ret void
}